; ModuleID = '39/1437.c'
source_filename = "39/1437.c"
target datalayout = "e-m:e-p270:32:32-p271:32:32-p272:64:64-i64:64-f80:128-n8:16:32:64-S128"
target triple = "x86_64-pc-linux-gnu"

%struct.student = type { [20 x i8], i32, i32, i8, i8, i32 }

@.str = private unnamed_addr constant [3 x i8] c"%d\00", align 1
@.str.1 = private unnamed_addr constant [18 x i8] c"%s %d %d %c %c %d\00", align 1
@.str.2 = private unnamed_addr constant [12 x i8] c"%s\0A%ld\0A%ld\0A\00", align 1

; Function Attrs: noinline nounwind uwtable
define dso_local void @main() #0 {
  %1 = alloca i32, align 4
  %2 = alloca i32, align 4
  %3 = alloca i32, align 4
  %4 = alloca [100 x i64], align 16
  %5 = alloca i64, align 8
  %6 = alloca i64, align 8
  %7 = alloca [100 x %struct.student], align 16
  %8 = bitcast [100 x i64]* %4 to i8*
  call void @llvm.memset.p0i8.i64(i8* align 16 %8, i8 0, i64 800, i1 false)
  %9 = call i32 (i8*, ...) @__isoc99_scanf(i8* getelementptr inbounds ([3 x i8], [3 x i8]* @.str, i64 0, i64 0), i32* %2)
  store i32 0, i32* %1, align 4
  br label %10

10:                                               ; preds = %41, %0
  %11 = load i32, i32* %1, align 4
  %12 = load i32, i32* %2, align 4
  %13 = icmp slt i32 %11, %12
  br i1 %13, label %14, label %44

14:                                               ; preds = %10
  %15 = load i32, i32* %1, align 4
  %16 = sext i32 %15 to i64
  %17 = getelementptr inbounds [100 x %struct.student], [100 x %struct.student]* %7, i64 0, i64 %16
  %18 = getelementptr inbounds %struct.student, %struct.student* %17, i32 0, i32 0
  %19 = getelementptr inbounds [20 x i8], [20 x i8]* %18, i64 0, i64 0
  %20 = load i32, i32* %1, align 4
  %21 = sext i32 %20 to i64
  %22 = getelementptr inbounds [100 x %struct.student], [100 x %struct.student]* %7, i64 0, i64 %21
  %23 = getelementptr inbounds %struct.student, %struct.student* %22, i32 0, i32 1
  %24 = load i32, i32* %1, align 4
  %25 = sext i32 %24 to i64
  %26 = getelementptr inbounds [100 x %struct.student], [100 x %struct.student]* %7, i64 0, i64 %25
  %27 = getelementptr inbounds %struct.student, %struct.student* %26, i32 0, i32 2
  %28 = load i32, i32* %1, align 4
  %29 = sext i32 %28 to i64
  %30 = getelementptr inbounds [100 x %struct.student], [100 x %struct.student]* %7, i64 0, i64 %29
  %31 = getelementptr inbounds %struct.student, %struct.student* %30, i32 0, i32 3
  %32 = load i32, i32* %1, align 4
  %33 = sext i32 %32 to i64
  %34 = getelementptr inbounds [100 x %struct.student], [100 x %struct.student]* %7, i64 0, i64 %33
  %35 = getelementptr inbounds %struct.student, %struct.student* %34, i32 0, i32 4
  %36 = load i32, i32* %1, align 4
  %37 = sext i32 %36 to i64
  %38 = getelementptr inbounds [100 x %struct.student], [100 x %struct.student]* %7, i64 0, i64 %37
  %39 = getelementptr inbounds %struct.student, %struct.student* %38, i32 0, i32 5
  %40 = call i32 (i8*, ...) @__isoc99_scanf(i8* getelementptr inbounds ([18 x i8], [18 x i8]* @.str.1, i64 0, i64 0), i8* %19, i32* %23, i32* %27, i8* %31, i8* %35, i32* %39)
  br label %41

41:                                               ; preds = %14
  %42 = load i32, i32* %1, align 4
  %43 = add nsw i32 %42, 1
  store i32 %43, i32* %1, align 4
  br label %10

44:                                               ; preds = %10
  store i32 0, i32* %1, align 4
  br label %45

45:                                               ; preds = %160, %44
  %46 = load i32, i32* %1, align 4
  %47 = load i32, i32* %2, align 4
  %48 = icmp slt i32 %46, %47
  br i1 %48, label %49, label %163

49:                                               ; preds = %45
  %50 = load i32, i32* %1, align 4
  %51 = sext i32 %50 to i64
  %52 = getelementptr inbounds [100 x %struct.student], [100 x %struct.student]* %7, i64 0, i64 %51
  %53 = getelementptr inbounds %struct.student, %struct.student* %52, i32 0, i32 1
  %54 = load i32, i32* %53, align 4
  %55 = icmp sgt i32 %54, 80
  br i1 %55, label %56, label %72

56:                                               ; preds = %49
  %57 = load i32, i32* %1, align 4
  %58 = sext i32 %57 to i64
  %59 = getelementptr inbounds [100 x %struct.student], [100 x %struct.student]* %7, i64 0, i64 %58
  %60 = getelementptr inbounds %struct.student, %struct.student* %59, i32 0, i32 5
  %61 = load i32, i32* %60, align 4
  %62 = icmp ne i32 %61, 0
  br i1 %62, label %63, label %72

63:                                               ; preds = %56
  %64 = load i32, i32* %1, align 4
  %65 = sext i32 %64 to i64
  %66 = getelementptr inbounds [100 x i64], [100 x i64]* %4, i64 0, i64 %65
  %67 = load i64, i64* %66, align 8
  %68 = add nsw i64 %67, 8000
  %69 = load i32, i32* %1, align 4
  %70 = sext i32 %69 to i64
  %71 = getelementptr inbounds [100 x i64], [100 x i64]* %4, i64 0, i64 %70
  store i64 %68, i64* %71, align 8
  br label %72

72:                                               ; preds = %63, %56, %49
  %73 = load i32, i32* %1, align 4
  %74 = sext i32 %73 to i64
  %75 = getelementptr inbounds [100 x %struct.student], [100 x %struct.student]* %7, i64 0, i64 %74
  %76 = getelementptr inbounds %struct.student, %struct.student* %75, i32 0, i32 1
  %77 = load i32, i32* %76, align 4
  %78 = icmp sgt i32 %77, 85
  br i1 %78, label %79, label %95

79:                                               ; preds = %72
  %80 = load i32, i32* %1, align 4
  %81 = sext i32 %80 to i64
  %82 = getelementptr inbounds [100 x %struct.student], [100 x %struct.student]* %7, i64 0, i64 %81
  %83 = getelementptr inbounds %struct.student, %struct.student* %82, i32 0, i32 2
  %84 = load i32, i32* %83, align 4
  %85 = icmp sgt i32 %84, 80
  br i1 %85, label %86, label %95

86:                                               ; preds = %79
  %87 = load i32, i32* %1, align 4
  %88 = sext i32 %87 to i64
  %89 = getelementptr inbounds [100 x i64], [100 x i64]* %4, i64 0, i64 %88
  %90 = load i64, i64* %89, align 8
  %91 = add nsw i64 %90, 4000
  %92 = load i32, i32* %1, align 4
  %93 = sext i32 %92 to i64
  %94 = getelementptr inbounds [100 x i64], [100 x i64]* %4, i64 0, i64 %93
  store i64 %91, i64* %94, align 8
  br label %95

95:                                               ; preds = %86, %79, %72
  %96 = load i32, i32* %1, align 4
  %97 = sext i32 %96 to i64
  %98 = getelementptr inbounds [100 x %struct.student], [100 x %struct.student]* %7, i64 0, i64 %97
  %99 = getelementptr inbounds %struct.student, %struct.student* %98, i32 0, i32 1
  %100 = load i32, i32* %99, align 4
  %101 = icmp sgt i32 %100, 90
  br i1 %101, label %102, label %111

102:                                              ; preds = %95
  %103 = load i32, i32* %1, align 4
  %104 = sext i32 %103 to i64
  %105 = getelementptr inbounds [100 x i64], [100 x i64]* %4, i64 0, i64 %104
  %106 = load i64, i64* %105, align 8
  %107 = add nsw i64 %106, 2000
  %108 = load i32, i32* %1, align 4
  %109 = sext i32 %108 to i64
  %110 = getelementptr inbounds [100 x i64], [100 x i64]* %4, i64 0, i64 %109
  store i64 %107, i64* %110, align 8
  br label %111

111:                                              ; preds = %102, %95
  %112 = load i32, i32* %1, align 4
  %113 = sext i32 %112 to i64
  %114 = getelementptr inbounds [100 x %struct.student], [100 x %struct.student]* %7, i64 0, i64 %113
  %115 = getelementptr inbounds %struct.student, %struct.student* %114, i32 0, i32 1
  %116 = load i32, i32* %115, align 4
  %117 = icmp sgt i32 %116, 85
  br i1 %117, label %118, label %135

118:                                              ; preds = %111
  %119 = load i32, i32* %1, align 4
  %120 = sext i32 %119 to i64
  %121 = getelementptr inbounds [100 x %struct.student], [100 x %struct.student]* %7, i64 0, i64 %120
  %122 = getelementptr inbounds %struct.student, %struct.student* %121, i32 0, i32 4
  %123 = load i8, i8* %122, align 1
  %124 = sext i8 %123 to i32
  %125 = icmp eq i32 %124, 89
  br i1 %125, label %126, label %135

126:                                              ; preds = %118
  %127 = load i32, i32* %1, align 4
  %128 = sext i32 %127 to i64
  %129 = getelementptr inbounds [100 x i64], [100 x i64]* %4, i64 0, i64 %128
  %130 = load i64, i64* %129, align 8
  %131 = add nsw i64 %130, 1000
  %132 = load i32, i32* %1, align 4
  %133 = sext i32 %132 to i64
  %134 = getelementptr inbounds [100 x i64], [100 x i64]* %4, i64 0, i64 %133
  store i64 %131, i64* %134, align 8
  br label %135

135:                                              ; preds = %126, %118, %111
  %136 = load i32, i32* %1, align 4
  %137 = sext i32 %136 to i64
  %138 = getelementptr inbounds [100 x %struct.student], [100 x %struct.student]* %7, i64 0, i64 %137
  %139 = getelementptr inbounds %struct.student, %struct.student* %138, i32 0, i32 2
  %140 = load i32, i32* %139, align 4
  %141 = icmp sgt i32 %140, 80
  br i1 %141, label %142, label %159

142:                                              ; preds = %135
  %143 = load i32, i32* %1, align 4
  %144 = sext i32 %143 to i64
  %145 = getelementptr inbounds [100 x %struct.student], [100 x %struct.student]* %7, i64 0, i64 %144
  %146 = getelementptr inbounds %struct.student, %struct.student* %145, i32 0, i32 3
  %147 = load i8, i8* %146, align 4
  %148 = sext i8 %147 to i32
  %149 = icmp eq i32 %148, 89
  br i1 %149, label %150, label %159

150:                                              ; preds = %142
  %151 = load i32, i32* %1, align 4
  %152 = sext i32 %151 to i64
  %153 = getelementptr inbounds [100 x i64], [100 x i64]* %4, i64 0, i64 %152
  %154 = load i64, i64* %153, align 8
  %155 = add nsw i64 %154, 850
  %156 = load i32, i32* %1, align 4
  %157 = sext i32 %156 to i64
  %158 = getelementptr inbounds [100 x i64], [100 x i64]* %4, i64 0, i64 %157
  store i64 %155, i64* %158, align 8
  br label %159

159:                                              ; preds = %150, %142, %135
  br label %160

160:                                              ; preds = %159
  %161 = load i32, i32* %1, align 4
  %162 = add nsw i32 %161, 1
  store i32 %162, i32* %1, align 4
  br label %45

163:                                              ; preds = %45
  %164 = getelementptr inbounds [100 x i64], [100 x i64]* %4, i64 0, i64 0
  %165 = load i64, i64* %164, align 16
  store i64 %165, i64* %6, align 8
  store i32 0, i32* %3, align 4
  %166 = getelementptr inbounds [100 x i64], [100 x i64]* %4, i64 0, i64 0
  %167 = load i64, i64* %166, align 16
  store i64 %167, i64* %5, align 8
  store i32 1, i32* %1, align 4
  br label %168

168:                                              ; preds = %192, %163
  %169 = load i32, i32* %1, align 4
  %170 = load i32, i32* %2, align 4
  %171 = icmp slt i32 %169, %170
  br i1 %171, label %172, label %195

172:                                              ; preds = %168
  %173 = load i64, i64* %6, align 8
  %174 = load i32, i32* %1, align 4
  %175 = sext i32 %174 to i64
  %176 = getelementptr inbounds [100 x i64], [100 x i64]* %4, i64 0, i64 %175
  %177 = load i64, i64* %176, align 8
  %178 = icmp slt i64 %173, %177
  br i1 %178, label %179, label %185

179:                                              ; preds = %172
  %180 = load i32, i32* %1, align 4
  %181 = sext i32 %180 to i64
  %182 = getelementptr inbounds [100 x i64], [100 x i64]* %4, i64 0, i64 %181
  %183 = load i64, i64* %182, align 8
  store i64 %183, i64* %6, align 8
  %184 = load i32, i32* %1, align 4
  store i32 %184, i32* %3, align 4
  br label %185

185:                                              ; preds = %179, %172
  %186 = load i64, i64* %5, align 8
  %187 = load i32, i32* %1, align 4
  %188 = sext i32 %187 to i64
  %189 = getelementptr inbounds [100 x i64], [100 x i64]* %4, i64 0, i64 %188
  %190 = load i64, i64* %189, align 8
  %191 = add nsw i64 %186, %190
  store i64 %191, i64* %5, align 8
  br label %192

192:                                              ; preds = %185
  %193 = load i32, i32* %1, align 4
  %194 = add nsw i32 %193, 1
  store i32 %194, i32* %1, align 4
  br label %168

195:                                              ; preds = %168
  %196 = load i32, i32* %3, align 4
  %197 = sext i32 %196 to i64
  %198 = getelementptr inbounds [100 x %struct.student], [100 x %struct.student]* %7, i64 0, i64 %197
  %199 = getelementptr inbounds %struct.student, %struct.student* %198, i32 0, i32 0
  %200 = getelementptr inbounds [20 x i8], [20 x i8]* %199, i64 0, i64 0
  %201 = load i32, i32* %3, align 4
  %202 = sext i32 %201 to i64
  %203 = getelementptr inbounds [100 x i64], [100 x i64]* %4, i64 0, i64 %202
  %204 = load i64, i64* %203, align 8
  %205 = load i64, i64* %5, align 8
  %206 = call i32 (i8*, ...) @printf(i8* getelementptr inbounds ([12 x i8], [12 x i8]* @.str.2, i64 0, i64 0), i8* %200, i64 %204, i64 %205)
  ret void
}

; Function Attrs: argmemonly nounwind willreturn
declare void @llvm.memset.p0i8.i64(i8* nocapture writeonly, i8, i64, i1 immarg) #1

declare dso_local i32 @__isoc99_scanf(i8*, ...) #2

declare dso_local i32 @printf(i8*, ...) #2


!llvm.module.flags = !{!0}
!llvm.ident = !{!1}

!0 = !{i32 1, !"wchar_size", i32 4}
!1 = !{!"clang version 10.0.0-4ubuntu1 "}
